target datalayout = "e-m:e-p270:32:32-p271:32:32-p272:64:64-i64:64-i128:128-f80:128-n8:16:32:64-S128"
target triple = "x86_64-unknown-linux-gnu"

%"class.sat::literal" = type { i32 }
%"class.sat::solver" = type { %"class.sat::solver_core", i8, [7 x i8], %"struct.sat::config", %"struct.sat::stats", %class.scoped_ptr, %class.scoped_ptr.0, ptr, %"class.sat::drat", [2 x %"class.sat::clause_allocator"], i8, %class.random_gen, %"class.sat::cleaner", %class.svector.11, %"class.sat::model_converter", i8, %"class.sat::simplifier", %"class.sat::scc", %"class.sat::asymm_branch", %"class.sat::probing", i8, [7 x i8], %"class.sat::mus", %"class.sat::binspr", i8, i8, [6 x i8], %"class.sat::justification", %"class.sat::literal", %class.ptr_vector.20, %class.ptr_vector.20, i32, %class.svector.4, %class.svector.4, %class.svector.4, %class.svector.4, %class.vector.40, %class.svector.11, %class.svector.41, %class.svector.14, %class.svector.14, %class.svector.14, %class.svector.14, %class.svector.14, %class.svector.4, %class.svector.4, i32, %class.svector.26, %class.svector.4, i32, %class.svector.43, %class.svector.43, %class.svector.43, %class.svector.43, %class.svector.43, i32, double, %class.svector.14, %class.svector.14, %class.svector.14, %class.svector.24, i32, i32, i32, i32, i32, i32, %"struct.sat::backoff", i32, i32, %"struct.sat::backoff", %"struct.sat::backoff", %class.var_queue, i32, i32, i32, %class.ema, %class.ema, %class.ema, %class.ema, %class.ema, %class.svector.26, %class.svector.28, %"class.std::__cxx11::basic_string", i8, %class.visit_helper, %class.svector.45, %class.scoped_limit_trail, %class.stopwatch, %class.params_ref, %"struct.sat::no_drat_params", %class.scoped_ptr.38, %class.svector.26, %"class.sat::literal_set", %"class.sat::literal_set", %class.svector.26, i32, i32, i32, i32, i8, ptr, ptr, %class.statistics, i32, i32, i32, i32, i8, i32, i32, i32, i32, i32, i32, i32, double, i32, double, i8, i8, %class.svector.26, i8, %class.svector.43, i32, i32, i32, %class.svector.26, %class.svector.26, %class.svector.24, %class.svector.4, %class.approx_set_tpl, %class.svector.26, %class.svector.26, %class.vector.10, %class.svector.26, %class.svector.36, %class.u_map, %class.svector.26 }
%"class.sat::solver_core" = type { ptr, ptr }
%"struct.sat::config" = type <{ i64, i32, i32, i32, i8, [3 x i8], i32, i32, double, i32, i8, [3 x i8], i32, i8, [3 x i8], i32, [4 x i8], double, double, i32, i32, double, double, i32, [4 x i8], %class.symbol, double, i32, i32, i8, [3 x i8], i32, i32, i8, [3 x i8], i32, i8, [3 x i8], i32, i8, [3 x i8], i32, i8, i8, i8, i8, i32, i8, i8, i8, i8, i8, i8, i8, i8, i32, i8, i8, i8, i8, i32, double, i32, [4 x i8], double, double, double, double, i32, i8, i8, [2 x i8], double, i8, i8, [2 x i8], i32, double, i32, i32, i32, i32, i32, i32, i32, i32, i8, i8, i8, i8, i32, i32, i8, i8, i8, i8, i8, i8, i8, [5 x i8], %class.symbol, i8, i8, i8, i8, i8, i8, [2 x i8], i32, i32, i32, i8, [3 x i8], double, double, double, double, double, i8, [7 x i8] }>
%class.symbol = type { ptr }
%"struct.sat::stats" = type { i32, i32, i32, i32, i32, i32, i32, i32, i32, i32, i32, i32, i32, i32, i32, i32, i32, i32, i32, i32, i32 }
%class.scoped_ptr = type { ptr }
%class.scoped_ptr.0 = type { ptr }
%"class.sat::drat" = type { ptr, %class.svector, ptr, %"class.sat::clause_allocator", ptr, ptr, %class.svector.6, %class.svector.8, %class.vector.10, %class.svector.11, i8, i8, i8, i8, i8, %"struct.sat::drat::stats" }
%class.svector = type { %class.vector }
%class.vector = type { ptr }
%"class.sat::clause_allocator" = type { %class.sat_allocator, %class.id_gen }
%class.sat_allocator = type { ptr, i64, %class.ptr_vector, ptr, [65 x %class.ptr_vector.2] }
%class.ptr_vector = type { %class.vector.1 }
%class.vector.1 = type { ptr }
%class.ptr_vector.2 = type { %class.vector.3 }
%class.vector.3 = type { ptr }
%class.id_gen = type { i32, %class.svector.4 }
%class.svector.6 = type { %class.vector.7 }
%class.vector.7 = type { ptr }
%class.svector.8 = type { %class.vector.9 }
%class.vector.9 = type { ptr }
%"struct.sat::drat::stats" = type { i32, i32, i32, i32 }
%class.random_gen = type { i32 }
%"class.sat::cleaner" = type { ptr, i32, i32, i32, i32 }
%"class.sat::model_converter" = type { %class.vector.13, i32, %class.svector.14, ptr, %class.svector.16 }
%class.vector.13 = type { ptr }
%class.svector.16 = type { %class.vector.17 }
%class.vector.17 = type { ptr }
%"class.sat::simplifier" = type { ptr, i32, %"class.sat::use_list", %"class.sat::ext_use_list", %"class.sat::clause_set", %class.svector.22, i32, %class.tracked_uint_set, i8, %"class.sat::tmp_clause", %class.svector.24, i32, i32, i8, i8, i8, i8, i32, i8, i8, i32, i8, i32, i8, i8, i32, i32, i32, i32, i32, i32, i32, i32, i32, i32, i8, i32, i8, i8, i32, i32, i32, i32, i32, i32, i32, i32, i32, i32, i32, i8, i32, %class.ptr_vector.20, %class.svector.26, %class.svector.28, %class.svector.28, %class.svector.26 }
%"class.sat::use_list" = type { %class.vector.18 }
%class.vector.18 = type { ptr }
%"class.sat::ext_use_list" = type { %class.vector.19 }
%class.vector.19 = type { ptr }
%"class.sat::clause_set" = type { %class.svector.4, %class.ptr_vector.20 }
%class.svector.22 = type { %class.vector.23 }
%class.vector.23 = type { ptr }
%class.tracked_uint_set = type { %class.svector.24, %class.svector.4 }
%"class.sat::tmp_clause" = type { ptr }
%"class.sat::scc" = type { ptr, i8, i8, i32, i32, %"class.sat::big" }
%"class.sat::big" = type { ptr, i32, %class.vector.30, %class.svector.14, %class.svector.31, %class.svector.31, %class.svector.26, %class.svector.26, i8, i8, %class.vector.30 }
%class.svector.31 = type { %class.vector.32 }
%class.vector.32 = type { ptr }
%class.vector.30 = type { ptr }
%"class.sat::asymm_branch" = type { ptr, %class.params_ref, i64, %class.random_gen, i32, i32, i8, i32, i32, i8, i8, i64, i32, i32, i32, %class.svector.26, %class.svector.26, %class.svector.33, %class.svector.33, %class.svector.26, %class.svector.26 }
%class.svector.33 = type { %class.vector.34 }
%class.vector.34 = type { ptr }
%"class.sat::probing" = type { ptr, i32, %"class.sat::literal_set", %class.svector.26, i32, i8, i32, i8, i8, i64, i32, %class.vector.35, %class.svector.36, %"class.sat::big" }
%class.vector.35 = type { ptr }
%"class.sat::mus" = type <{ ptr, %class.svector.26, %class.svector.26, i8, [7 x i8], %class.svector.11, i32, [4 x i8] }>
%"class.sat::binspr" = type <{ ptr, %class.scoped_ptr.38, i32, i32, %class.vector.39, i32, i32, %class.svector.14, %class.svector.14, %class.svector.26, %class.svector.26, i32, i32, i32, i32, i32, [4 x i32], [5 x i32], [5 x i32], [4 x i8] }>
%class.vector.39 = type { ptr }
%"class.sat::justification" = type <{ i32, [4 x i8], i64, i32, [4 x i8] }>
%class.ptr_vector.20 = type { %class.vector.21 }
%class.vector.21 = type { ptr }
%class.vector.40 = type { ptr }
%class.svector.11 = type { %class.vector.12 }
%class.vector.12 = type { ptr }
%class.svector.41 = type { %class.vector.42 }
%class.vector.42 = type { ptr }
%class.svector.14 = type { %class.vector.15 }
%class.vector.15 = type { ptr }
%"struct.sat::backoff" = type { i32, i32, i32, i32, i32 }
%class.var_queue = type { %class.heap }
%class.heap = type { %"struct.var_queue<svector<unsigned int>>::lt", %class.svector.31, %class.svector.31 }
%"struct.var_queue<svector<unsigned int>>::lt" = type { ptr }
%class.ema = type { double, double, double, i32, i32 }
%class.svector.28 = type { %class.vector.29 }
%class.vector.29 = type { ptr }
%"class.std::__cxx11::basic_string" = type { %"struct.std::__cxx11::basic_string<char>::_Alloc_hider", i64, %union.anon }
%"struct.std::__cxx11::basic_string<char>::_Alloc_hider" = type { ptr }
%union.anon = type { i64, [8 x i8] }
%class.visit_helper = type { %class.svector.4, i32, i32 }
%class.svector.45 = type { %class.vector.46 }
%class.vector.46 = type { ptr }
%class.scoped_limit_trail = type { %class.svector.4, i32, i32 }
%class.stopwatch = type <{ %"class.std::chrono::time_point", %"class.std::chrono::duration", i8, [7 x i8] }>
%"class.std::chrono::time_point" = type { %"class.std::chrono::duration" }
%"class.std::chrono::duration" = type { i64 }
%class.params_ref = type { ptr }
%"struct.sat::no_drat_params" = type { %class.params_ref }
%class.scoped_ptr.38 = type { ptr }
%"class.sat::literal_set" = type { %class.tracked_uint_set }
%class.statistics = type { %class.svector.47, %class.svector.49 }
%class.svector.47 = type { %class.vector.48 }
%class.vector.48 = type { ptr }
%class.svector.49 = type { %class.vector.50 }
%class.vector.50 = type { ptr }
%class.svector.43 = type { %class.vector.44 }
%class.vector.44 = type { ptr }
%class.svector.24 = type { %class.vector.25 }
%class.vector.25 = type { ptr }
%class.svector.4 = type { %class.vector.5 }
%class.vector.5 = type { ptr }
%class.approx_set_tpl = type { i32 }
%class.vector.10 = type { ptr }
%class.svector.36 = type { %class.vector.37 }
%class.vector.37 = type { ptr }
%class.u_map = type { %class.map }
%class.map = type { %class.table2map }
%class.table2map = type { %class.core_hashtable }
%class.core_hashtable = type <{ ptr, i32, i32, i32, [4 x i8] }>
%class.svector.26 = type { %class.vector.27 }
%class.vector.27 = type { ptr }

; Function Attrs: mustprogress nounwind uwtable
define linkonce_odr hidden noundef i32 @_ZNK3u2uclEj(ptr noundef nonnull align 1 dereferenceable(1) %this, i32 noundef %u) #4 comdat align 2 {
entry:
  %this.addr = alloca ptr, align 8
  %u.addr = alloca i32, align 4
  store ptr %this, ptr %this.addr, align 8
  store i32 %u, ptr %u.addr, align 4
  %0 = load i32, ptr %u.addr, align 4
  ret i32 %0
}

; Function Attrs: mustprogress nounwind uwtable
define linkonce_odr hidden noundef i32 @_ZNK14approx_set_tplIj3u2ujE3u2sEj(ptr noundef nonnull align 4 dereferenceable(4) %this, i32 noundef %u) #4 comdat align 2 {
entry:
  %this.addr = alloca ptr, align 8
  %u.addr = alloca i32, align 4
  store ptr %this, ptr %this.addr, align 8
  store i32 %u, ptr %u.addr, align 4
  %0 = load i32, ptr %u.addr, align 4
  %and = and i32 %0, 31
  %shl = shl i32 1, %and
  ret i32 %shl
}

; Function Attrs: mustprogress uwtable
define linkonce_odr hidden noundef i32 @_ZNK14approx_set_tplIj3u2ujE3e2uERKj(ptr noundef nonnull align 4 dereferenceable(4) %this, ptr noundef nonnull align 4 dereferenceable(4) %e) #5 comdat align 2 {
entry:
  %this.addr = alloca ptr, align 8
  %e.addr = alloca ptr, align 8
  store ptr %this, ptr %this.addr, align 8
  store ptr %e, ptr %e.addr, align 8
  %this1 = load ptr, ptr %this.addr, align 8
  %0 = load ptr, ptr %e.addr, align 8
  %1 = load i32, ptr %0, align 4
  %call = call noundef i32 @_ZNK3u2uclEj(ptr noundef nonnull align 1 dereferenceable(1) %this1, i32 noundef %1)
  ret i32 %call
}

; Function Attrs: mustprogress uwtable
define linkonce_odr hidden noundef i32 @_ZNK14approx_set_tplIj3u2ujE3e2sERKj(ptr noundef nonnull align 4 dereferenceable(4) %this, ptr noundef nonnull align 4 dereferenceable(4) %e) #5 comdat align 2 {
entry:
  %this.addr = alloca ptr, align 8
  %e.addr = alloca ptr, align 8
  store ptr %this, ptr %this.addr, align 8
  store ptr %e, ptr %e.addr, align 8
  %this1 = load ptr, ptr %this.addr, align 8
  %0 = load ptr, ptr %e.addr, align 8
  %call = call noundef i32 @_ZNK14approx_set_tplIj3u2ujE3e2uERKj(ptr noundef nonnull align 4 dereferenceable(4) %this1, ptr noundef nonnull align 4 dereferenceable(4) %0)
  %call2 = call noundef i32 @_ZNK14approx_set_tplIj3u2ujE3u2sEj(ptr noundef nonnull align 4 dereferenceable(4) %this1, i32 noundef %call)
  ret i32 %call2
}

; Function Attrs: mustprogress nounwind uwtable
define linkonce_odr hidden noundef i32 @_ZNK3sat13justification5levelEv(ptr noundef nonnull align 8 dereferenceable(20) %this) #4 comdat align 2 {
entry:
  %this.addr = alloca ptr, align 8
  store ptr %this, ptr %this.addr, align 8
  %this1 = load ptr, ptr %this.addr, align 8
  %m_level = getelementptr inbounds %"class.sat::justification", ptr %this1, i32 0, i32 0
  %0 = load i32, ptr %m_level, align 8
  ret i32 %0
}

; Function Attrs: mustprogress nounwind uwtable
define linkonce_odr hidden noundef nonnull align 8 dereferenceable(20) ptr @_ZNK6vectorIN3sat13justificationELb0EjEixEj(ptr noundef nonnull align 8 dereferenceable(8) %this, i32 noundef %idx) #4 comdat align 2 {
entry:
  %this.addr = alloca ptr, align 8
  %idx.addr = alloca i32, align 4
  store ptr %this, ptr %this.addr, align 8
  store i32 %idx, ptr %idx.addr, align 4
  %this1 = load ptr, ptr %this.addr, align 8
  %m_data = getelementptr inbounds %class.vector.42, ptr %this1, i32 0, i32 0
  %0 = load ptr, ptr %m_data, align 8
  %1 = load i32, ptr %idx.addr, align 4
  %idxprom = zext i32 %1 to i64
  %arrayidx = getelementptr inbounds %"class.sat::justification", ptr %0, i64 %idxprom
  ret ptr %arrayidx
}

; Function Attrs: mustprogress nounwind uwtable
define linkonce_odr hidden noundef i32 @_ZNK3sat7literal3varEv(ptr noundef nonnull align 4 dereferenceable(4) %this) #4 comdat align 2 {
entry:
  %this.addr = alloca ptr, align 8
  store ptr %this, ptr %this.addr, align 8
  %this1 = load ptr, ptr %this.addr, align 8
  %m_val = getelementptr inbounds %"class.sat::literal", ptr %this1, i32 0, i32 0
  %0 = load i32, ptr %m_val, align 4
  %shr = lshr i32 %0, 1
  ret i32 %shr
}

; Function Attrs: mustprogress nounwind uwtable
define linkonce_odr hidden noundef i32 @_ZNK6vectorIN3sat7literalELb0EjE4sizeEv(ptr noundef nonnull align 8 dereferenceable(8) %this) #4 comdat align 2 {
entry:
  %retval = alloca i32, align 4
  %this.addr = alloca ptr, align 8
  store ptr %this, ptr %this.addr, align 8
  %this1 = load ptr, ptr %this.addr, align 8
  %m_data = getelementptr inbounds %class.vector.27, ptr %this1, i32 0, i32 0
  %0 = load ptr, ptr %m_data, align 8
  %cmp = icmp eq ptr %0, null
  br i1 %cmp, label %if.then, label %if.end

if.then:                                          ; preds = %entry
  store i32 0, ptr %retval, align 4
  br label %return

if.end:                                           ; preds = %entry
  %m_data2 = getelementptr inbounds %class.vector.27, ptr %this1, i32 0, i32 0
  %1 = load ptr, ptr %m_data2, align 8
  %arrayidx = getelementptr inbounds i32, ptr %1, i64 -1
  %2 = load i32, ptr %arrayidx, align 4
  store i32 %2, ptr %retval, align 4
  br label %return

return:                                           ; preds = %if.end, %if.then
  %3 = load i32, ptr %retval, align 4
  ret i32 %3
}

; Function Attrs: mustprogress uwtable
define linkonce_odr hidden void @_ZN14approx_set_tplIj3u2ujE6insertERKj(ptr noundef nonnull align 4 dereferenceable(4) %this, ptr noundef nonnull align 4 dereferenceable(4) %e) #5 comdat align 2 {
entry:
  %this.addr = alloca ptr, align 8
  %e.addr = alloca ptr, align 8
  store ptr %this, ptr %this.addr, align 8
  store ptr %e, ptr %e.addr, align 8
  %this1 = load ptr, ptr %this.addr, align 8
  %0 = load ptr, ptr %e.addr, align 8
  %call = call noundef i32 @_ZNK14approx_set_tplIj3u2ujE3e2sERKj(ptr noundef nonnull align 4 dereferenceable(4) %this1, ptr noundef nonnull align 4 dereferenceable(4) %0)
  %m_set = getelementptr inbounds %class.approx_set_tpl, ptr %this1, i32 0, i32 0
  %1 = load i32, ptr %m_set, align 4
  %or = or i32 %1, %call
  store i32 %or, ptr %m_set, align 4
  ret void
}

; Function Attrs: mustprogress uwtable
define linkonce_odr hidden noundef i32 @_ZNK3sat6solver3lvlENS_7literalE(ptr noundef nonnull align 8 dereferenceable(4408) %this, i32 %l.coerce) #5 comdat align 2 {
entry:
  %l = alloca %"class.sat::literal", align 4
  %this.addr = alloca ptr, align 8
  %coerce.dive = getelementptr inbounds %"class.sat::literal", ptr %l, i32 0, i32 0
  store i32 %l.coerce, ptr %coerce.dive, align 4
  store ptr %this, ptr %this.addr, align 8
  %this1 = load ptr, ptr %this.addr, align 8
  %m_justification = getelementptr inbounds %"class.sat::solver", ptr %this1, i32 0, i32 38
  %call = call noundef i32 @_ZNK3sat7literal3varEv(ptr noundef nonnull align 4 dereferenceable(4) %l)
  %call2 = call noundef nonnull align 8 dereferenceable(20) ptr @_ZNK6vectorIN3sat13justificationELb0EjEixEj(ptr noundef nonnull align 8 dereferenceable(8) %m_justification, i32 noundef %call)
  %call3 = call noundef i32 @_ZNK3sat13justification5levelEv(ptr noundef nonnull align 8 dereferenceable(20) %call2)
  ret i32 %call3
}

; Function Attrs: mustprogress nounwind uwtable
define linkonce_odr hidden noundef ptr @_ZN6vectorIN3sat7literalELb0EjE3endEv(ptr noundef nonnull align 8 dereferenceable(8) %this) #4 comdat align 2 {
entry:
  %this.addr = alloca ptr, align 8
  store ptr %this, ptr %this.addr, align 8
  %this1 = load ptr, ptr %this.addr, align 8
  %m_data = getelementptr inbounds %class.vector.27, ptr %this1, i32 0, i32 0
  %0 = load ptr, ptr %m_data, align 8
  %call = call noundef i32 @_ZNK6vectorIN3sat7literalELb0EjE4sizeEv(ptr noundef nonnull align 8 dereferenceable(8) %this1)
  %idx.ext = zext i32 %call to i64
  %add.ptr = getelementptr inbounds %"class.sat::literal", ptr %0, i64 %idx.ext
  ret ptr %add.ptr
}

; Function Attrs: mustprogress nounwind uwtable
define linkonce_odr hidden noundef ptr @_ZN6vectorIN3sat7literalELb0EjE5beginEv(ptr noundef nonnull align 8 dereferenceable(8) %this) #4 comdat align 2 {
entry:
  %this.addr = alloca ptr, align 8
  store ptr %this, ptr %this.addr, align 8
  %this1 = load ptr, ptr %this.addr, align 8
  %m_data = getelementptr inbounds %class.vector.27, ptr %this1, i32 0, i32 0
  %0 = load ptr, ptr %m_data, align 8
  ret ptr %0
}

; Function Attrs: mustprogress nounwind uwtable
define linkonce_odr hidden void @_ZN14approx_set_tplIj3u2ujE5resetEv(ptr noundef nonnull align 4 dereferenceable(4) %this) #4 comdat align 2 {
entry:
  %this.addr = alloca ptr, align 8
  store ptr %this, ptr %this.addr, align 8
  %this1 = load ptr, ptr %this.addr, align 8
  %m_set = getelementptr inbounds %class.approx_set_tpl, ptr %this1, i32 0, i32 0
  store i32 0, ptr %m_set, align 4
  ret void
}

; Function Attrs: mustprogress uwtable
define hidden void @_ZN3sat6solver18updt_lemma_lvl_setEv(ptr noundef nonnull align 8 dereferenceable(4408) %this) #5 align 2 {
entry:
  %this.addr = alloca ptr, align 8
  %__range1 = alloca ptr, align 8
  %__begin1 = alloca ptr, align 8
  %__end1 = alloca ptr, align 8
  %l = alloca %"class.sat::literal", align 4
  %ref.tmp = alloca i32, align 4
  %agg.tmp = alloca %"class.sat::literal", align 4
  store ptr %this, ptr %this.addr, align 8
  %this1 = load ptr, ptr %this.addr, align 8
  %m_lvl_set = getelementptr inbounds %"class.sat::solver", ptr %this1, i32 0, i32 131
  call void @_ZN14approx_set_tplIj3u2ujE5resetEv(ptr noundef nonnull align 4 dereferenceable(4) %m_lvl_set)
  %m_lemma = getelementptr inbounds %"class.sat::solver", ptr %this1, i32 0, i32 127
  store ptr %m_lemma, ptr %__range1, align 8
  %0 = load ptr, ptr %__range1, align 8
  %call = call noundef ptr @_ZN6vectorIN3sat7literalELb0EjE5beginEv(ptr noundef nonnull align 8 dereferenceable(8) %0)
  store ptr %call, ptr %__begin1, align 8
  %1 = load ptr, ptr %__range1, align 8
  %call2 = call noundef ptr @_ZN6vectorIN3sat7literalELb0EjE3endEv(ptr noundef nonnull align 8 dereferenceable(8) %1)
  store ptr %call2, ptr %__end1, align 8
  br label %for.cond

for.cond:                                         ; preds = %for.inc, %entry
  %2 = load ptr, ptr %__begin1, align 8
  %3 = load ptr, ptr %__end1, align 8
  %cmp = icmp ne ptr %2, %3
  br i1 %cmp, label %for.body, label %for.end

for.body:                                         ; preds = %for.cond
  %4 = load ptr, ptr %__begin1, align 8
  call void @llvm.memcpy.p0.p0.i64(ptr align 4 %l, ptr align 4 %4, i64 4, i1 false)
  %m_lvl_set3 = getelementptr inbounds %"class.sat::solver", ptr %this1, i32 0, i32 131
  call void @llvm.memcpy.p0.p0.i64(ptr align 4 %agg.tmp, ptr align 4 %l, i64 4, i1 false)
  %coerce.dive = getelementptr inbounds %"class.sat::literal", ptr %agg.tmp, i32 0, i32 0
  %5 = load i32, ptr %coerce.dive, align 4
  %call4 = call noundef i32 @_ZNK3sat6solver3lvlENS_7literalE(ptr noundef nonnull align 8 dereferenceable(4408) %this1, i32 %5)
  store i32 %call4, ptr %ref.tmp, align 4
  call void @_ZN14approx_set_tplIj3u2ujE6insertERKj(ptr noundef nonnull align 4 dereferenceable(4) %m_lvl_set3, ptr noundef nonnull align 4 dereferenceable(4) %ref.tmp)
  br label %for.inc

for.inc:                                          ; preds = %for.body
  %6 = load ptr, ptr %__begin1, align 8
  %incdec.ptr = getelementptr inbounds %"class.sat::literal", ptr %6, i32 1
  store ptr %incdec.ptr, ptr %__begin1, align 8
  br label %for.cond

for.end:                                          ; preds = %for.cond
  ret void
}