; Function Attrs: mustprogress nofree norecurse nosync nounwind memory(read, argmem: readwrite, inaccessiblemem: none) uwtable
define hidden void @_ZN3sat6solver18updt_lemma_lvl_setEv(ptr nocapture noundef nonnull align 8 dereferenceable(4408) %this) local_unnamed_addr #21 align 2 {
entry:
  %m_lvl_set = getelementptr inbounds i8, ptr %this, i64 4328
  store i32 0, ptr %m_lvl_set, align 8
  %m_lemma = getelementptr inbounds i8, ptr %this, i64 4296
  %0 = load ptr, ptr %m_lemma, align 8
  %cmp.i.i = icmp eq ptr %0, null
  br i1 %cmp.i.i, label %for.end, label %_ZN6vectorIN3sat7literalELb0EjE3endEv.exit

_ZN6vectorIN3sat7literalELb0EjE3endEv.exit:       ; preds = %entry
  %arrayidx.i.i = getelementptr inbounds i8, ptr %0, i64 -4
  %1 = load i32, ptr %arrayidx.i.i, align 4
  %2 = zext i32 %1 to i64
  %add.ptr.i = getelementptr inbounds %"class.sat::literal", ptr %0, i64 %2
  %cmp.not6 = icmp eq i32 %1, 0
  br i1 %cmp.not6, label %for.end, label %for.body.lr.ph

for.body.lr.ph:                                   ; preds = %_ZN6vectorIN3sat7literalELb0EjE3endEv.exit
  %m_justification.i = getelementptr inbounds i8, ptr %this, i64 3448
  %3 = load ptr, ptr %m_justification.i, align 8
  br label %for.body

for.body:                                         ; preds = %for.body.lr.ph, %for.body
  %__begin1.08 = phi ptr [ %0, %for.body.lr.ph ], [ %incdec.ptr, %for.body ]
  %or.i57 = phi i32 [ 0, %for.body.lr.ph ], [ %or.i, %for.body ]
  %l.sroa.0.0.copyload = load i32, ptr %__begin1.08, align 4
  %shr.i.i = lshr i32 %l.sroa.0.0.copyload, 1
  %idxprom.i.i = zext nneg i32 %shr.i.i to i64
  %arrayidx.i.i4 = getelementptr inbounds %"class.sat::justification", ptr %3, i64 %idxprom.i.i
  %4 = load i32, ptr %arrayidx.i.i4, align 8
  %and.i.i.i = and i32 %4, 31
  %shl.i.i.i = shl nuw i32 1, %and.i.i.i
  %or.i = or i32 %shl.i.i.i, %or.i57
  store i32 %or.i, ptr %m_lvl_set, align 8
  %incdec.ptr = getelementptr inbounds i8, ptr %__begin1.08, i64 4
  %cmp.not = icmp eq ptr %incdec.ptr, %add.ptr.i
  br i1 %cmp.not, label %for.end, label %for.body

for.end:                                          ; preds = %for.body, %entry, %_ZN6vectorIN3sat7literalELb0EjE3endEv.exit
  ret void
}